target datalayout = "e-m:e-p270:32:32-p271:32:32-p272:64:64-i64:64-i128:128-f80:128-n8:16:32:64-S128"
target triple = "x86_64-pc-linux-gnu"

%struct.AVCodecContext = type { ptr, i32, i32, ptr, i32, i32, ptr, ptr, ptr, i64, i32, i32, ptr, i32, %struct.AVRational, %struct.AVRational, %struct.AVRational, i32, i32, i32, i32, i32, %struct.AVRational, i32, i32, i32, i32, i32, i32, i32, i32, i32, i32, i32, ptr, ptr, i32, float, float, float, float, float, float, float, float, float, i32, i32, i32, i32, i32, i32, i32, i32, i32, i32, i32, i32, ptr, ptr, ptr, i32, i32, i32, i32, i32, i32, i32, i32, i32, i32, %struct.AVChannelLayout, i32, i32, i32, i32, i32, i32, i32, i32, ptr, i32, i32, i32, float, float, i32, i32, i32, i32, i32, ptr, i64, i64, float, float, i32, i32, ptr, ptr, i32, i32, i32, i32, i32, ptr, ptr, ptr, ptr, i32, i32, [8 x i64], i32, i32, i32, i32, i32, i32, i32, ptr, ptr, i32, i32, i32, i32, i32, i32, i32, i32, i32, i32, ptr, ptr, i32, i32, ptr, ptr, ptr, ptr, i32, i32, i64, i32, i32, i64, ptr, i64, ptr, i32, ptr, i32 }
%struct.AVRational = type { i32, i32 }
%struct.AVChannelLayout = type { i32, i32, %union.anon.0, ptr }
%union.anon.0 = type { i64 }
%struct.FourXContext = type { ptr, %struct.BlockDSPContext, %struct.BswapDSPContext, ptr, ptr, %struct.GetBitContext, %struct.GetBitContext, %struct.GetByteContext, %struct.GetByteContext, [256 x i32], %struct.VLC, i32, [12 x i8], [6 x [64 x i16]], ptr, i32, i32, [100 x %struct.CFrameBuffer] }
%struct.BlockDSPContext = type { ptr, ptr, [2 x ptr] }
%struct.BswapDSPContext = type { ptr, ptr }
%struct.GetBitContext = type { ptr, ptr, i32, i32, i32 }
%struct.GetByteContext = type { ptr, ptr, ptr }
%struct.VLC = type { i32, ptr, i32, i32 }
%struct.CFrameBuffer = type { i32, i32, i32, ptr }

@decode_init.init_static_once = internal global i32 0, align 4
@.str.2 = private unnamed_addr constant [28 x i8] c"extradata wrong or missing\0A\00", align 1
@.str.3 = private unnamed_addr constant [26 x i8] c"unsupported width/height\0A\00", align 1

; Function Attrs: cold nounwind optsize uwtable
define internal i32 @decode_init(ptr noundef %0) #0 {
  %2 = alloca i32, align 4
  %3 = alloca ptr, align 8
  %4 = alloca ptr, align 8
  %5 = alloca i32, align 4
  %6 = alloca i32, align 4
  store ptr %0, ptr %3, align 8, !tbaa !4
  call void @llvm.lifetime.start.p0(i64 8, ptr %4) #10
  %7 = load ptr, ptr %3, align 8, !tbaa !4
  %8 = getelementptr inbounds nuw %struct.AVCodecContext, ptr %7, i32 0, i32 6
  %9 = load ptr, ptr %8, align 8, !tbaa !9
  store ptr %9, ptr %4, align 8, !tbaa !29
  call void @llvm.lifetime.start.p0(i64 4, ptr %5) #10
  %10 = load ptr, ptr %3, align 8, !tbaa !4
  %11 = getelementptr inbounds nuw %struct.AVCodecContext, ptr %10, i32 0, i32 13
  %12 = load i32, ptr %11, align 8, !tbaa !31
  %13 = icmp ne i32 %12, 4
  br i1 %13, label %19, label %14

14:                                               ; preds = %1
  %15 = load ptr, ptr %3, align 8, !tbaa !4
  %16 = getelementptr inbounds nuw %struct.AVCodecContext, ptr %15, i32 0, i32 12
  %17 = load ptr, ptr %16, align 8, !tbaa !32
  %18 = icmp ne ptr %17, null
  br i1 %18, label %21, label %19

19:                                               ; preds = %14, %1
  %20 = load ptr, ptr %3, align 8, !tbaa !4
  call void (ptr, i32, ptr, ...) @av_log(ptr noundef %20, i32 noundef 16, ptr noundef @.str.2)
  store i32 -1094995529, ptr %2, align 4
  store i32 1, ptr %6, align 4
  br label %110

21:                                               ; preds = %14
  %22 = load ptr, ptr %3, align 8, !tbaa !4
  %23 = getelementptr inbounds nuw %struct.AVCodecContext, ptr %22, i32 0, i32 18
  %24 = load i32, ptr %23, align 8, !tbaa !33
  %25 = srem i32 %24, 16
  %26 = icmp ne i32 %25, 0
  br i1 %26, label %33, label %27

27:                                               ; preds = %21
  %28 = load ptr, ptr %3, align 8, !tbaa !4
  %29 = getelementptr inbounds nuw %struct.AVCodecContext, ptr %28, i32 0, i32 19
  %30 = load i32, ptr %29, align 4, !tbaa !34
  %31 = srem i32 %30, 16
  %32 = icmp ne i32 %31, 0
  br i1 %32, label %33, label %35

33:                                               ; preds = %27, %21
  %34 = load ptr, ptr %3, align 8, !tbaa !4
  call void (ptr, i32, ptr, ...) @av_log(ptr noundef %34, i32 noundef 16, ptr noundef @.str.3)
  store i32 -1094995529, ptr %2, align 4
  store i32 1, ptr %6, align 4
  br label %110

35:                                               ; preds = %27
  %36 = load ptr, ptr %3, align 8, !tbaa !4
  %37 = getelementptr inbounds nuw %struct.AVCodecContext, ptr %36, i32 0, i32 18
  %38 = load i32, ptr %37, align 8, !tbaa !33
  %39 = load ptr, ptr %3, align 8, !tbaa !4
  %40 = getelementptr inbounds nuw %struct.AVCodecContext, ptr %39, i32 0, i32 19
  %41 = load i32, ptr %40, align 4, !tbaa !34
  %42 = load ptr, ptr %3, align 8, !tbaa !4
  %43 = call i32 @av_image_check_size(i32 noundef %38, i32 noundef %41, i32 noundef 0, ptr noundef %42)
  store i32 %43, ptr %5, align 4, !tbaa !35
  %44 = load i32, ptr %5, align 4, !tbaa !35
  %45 = icmp slt i32 %44, 0
  br i1 %45, label %46, label %48

46:                                               ; preds = %35
  %47 = load i32, ptr %5, align 4, !tbaa !35
  store i32 %47, ptr %2, align 4
  store i32 1, ptr %6, align 4
  br label %110

48:                                               ; preds = %35
  %49 = load ptr, ptr %3, align 8, !tbaa !4
  %50 = getelementptr inbounds nuw %struct.AVCodecContext, ptr %49, i32 0, i32 18
  %51 = load i32, ptr %50, align 8, !tbaa !33
  %52 = load ptr, ptr %3, align 8, !tbaa !4
  %53 = getelementptr inbounds nuw %struct.AVCodecContext, ptr %52, i32 0, i32 19
  %54 = load i32, ptr %53, align 4, !tbaa !34
  %55 = mul nsw i32 %51, %54
  %56 = mul nsw i32 %55, 2
  %57 = sext i32 %56 to i64
  %58 = call noalias ptr @av_mallocz(i64 noundef %57)
  %59 = load ptr, ptr %4, align 8, !tbaa !29
  %60 = getelementptr inbounds nuw %struct.FourXContext, ptr %59, i32 0, i32 3
  store ptr %58, ptr %60, align 8, !tbaa !36
  %61 = load ptr, ptr %3, align 8, !tbaa !4
  %62 = getelementptr inbounds nuw %struct.AVCodecContext, ptr %61, i32 0, i32 18
  %63 = load i32, ptr %62, align 8, !tbaa !33
  %64 = load ptr, ptr %3, align 8, !tbaa !4
  %65 = getelementptr inbounds nuw %struct.AVCodecContext, ptr %64, i32 0, i32 19
  %66 = load i32, ptr %65, align 4, !tbaa !34
  %67 = mul nsw i32 %63, %66
  %68 = mul nsw i32 %67, 2
  %69 = sext i32 %68 to i64
  %70 = call noalias ptr @av_mallocz(i64 noundef %69)
  %71 = load ptr, ptr %4, align 8, !tbaa !29
  %72 = getelementptr inbounds nuw %struct.FourXContext, ptr %71, i32 0, i32 4
  store ptr %70, ptr %72, align 16, !tbaa !44
  %73 = load ptr, ptr %4, align 8, !tbaa !29
  %74 = getelementptr inbounds nuw %struct.FourXContext, ptr %73, i32 0, i32 3
  %75 = load ptr, ptr %74, align 8, !tbaa !36
  %76 = icmp ne ptr %75, null
  br i1 %76, label %77, label %82

77:                                               ; preds = %48
  %78 = load ptr, ptr %4, align 8, !tbaa !29
  %79 = getelementptr inbounds nuw %struct.FourXContext, ptr %78, i32 0, i32 4
  %80 = load ptr, ptr %79, align 16, !tbaa !44
  %81 = icmp ne ptr %80, null
  br i1 %81, label %83, label %82

82:                                               ; preds = %77, %48
  store i32 -12, ptr %2, align 4
  store i32 1, ptr %6, align 4
  br label %110

83:                                               ; preds = %77
  %84 = load ptr, ptr %3, align 8, !tbaa !4
  %85 = getelementptr inbounds nuw %struct.AVCodecContext, ptr %84, i32 0, i32 12
  %86 = load ptr, ptr %85, align 8, !tbaa !32
  %87 = load i32, ptr %86, align 1, !tbaa !45
  %88 = lshr i32 %87, 16
  %89 = load ptr, ptr %4, align 8, !tbaa !29
  %90 = getelementptr inbounds nuw %struct.FourXContext, ptr %89, i32 0, i32 16
  store i32 %88, ptr %90, align 4, !tbaa !46
  %91 = load ptr, ptr %4, align 8, !tbaa !29
  %92 = getelementptr inbounds nuw %struct.FourXContext, ptr %91, i32 0, i32 1
  call void @ff_blockdsp_init(ptr noundef %92)
  %93 = load ptr, ptr %4, align 8, !tbaa !29
  %94 = getelementptr inbounds nuw %struct.FourXContext, ptr %93, i32 0, i32 2
  call void @ff_bswapdsp_init(ptr noundef %94)
  %95 = load ptr, ptr %3, align 8, !tbaa !4
  %96 = load ptr, ptr %4, align 8, !tbaa !29
  %97 = getelementptr inbounds nuw %struct.FourXContext, ptr %96, i32 0, i32 0
  store ptr %95, ptr %97, align 16, !tbaa !47
  %98 = load ptr, ptr %4, align 8, !tbaa !29
  %99 = getelementptr inbounds nuw %struct.FourXContext, ptr %98, i32 0, i32 16
  %100 = load i32, ptr %99, align 4, !tbaa !46
  %101 = icmp sgt i32 %100, 2
  br i1 %101, label %102, label %105

102:                                              ; preds = %83
  %103 = load ptr, ptr %3, align 8, !tbaa !4
  %104 = getelementptr inbounds nuw %struct.AVCodecContext, ptr %103, i32 0, i32 23
  store i32 37, ptr %104, align 8, !tbaa !48
  br label %108

105:                                              ; preds = %83
  %106 = load ptr, ptr %3, align 8, !tbaa !4
  %107 = getelementptr inbounds nuw %struct.AVCodecContext, ptr %106, i32 0, i32 23
  store i32 43, ptr %107, align 8, !tbaa !48
  br label %108

108:                                              ; preds = %105, %102
  %109 = call i32 @pthread_once(ptr noundef @decode_init.init_static_once, ptr noundef @init_vlcs)
  store i32 0, ptr %2, align 4
  store i32 1, ptr %6, align 4
  br label %110

110:                                              ; preds = %108, %82, %46, %33, %19
  call void @llvm.lifetime.end.p0(i64 4, ptr %5) #10
  call void @llvm.lifetime.end.p0(i64 8, ptr %4) #10
  %111 = load i32, ptr %2, align 4
  ret i32 %111
}