; Function Attrs: cold nounwind optsize uwtable
define internal range(i32 -2147483648, 1) i32 @decode_init(ptr noundef %0) #0 {
  %2 = getelementptr inbounds nuw i8, ptr %0, i64 32
  %3 = load ptr, ptr %2, align 8, !tbaa !4
  %4 = getelementptr inbounds nuw i8, ptr %0, i64 80
  %5 = load i32, ptr %4, align 8, !tbaa !27
  %.not = icmp eq i32 %5, 4
  br i1 %.not, label %6, label %9

6:                                                ; preds = %1
  %7 = getelementptr inbounds nuw i8, ptr %0, i64 72
  %8 = load ptr, ptr %7, align 8, !tbaa !28
  %.not30 = icmp eq ptr %8, null
  br i1 %.not30, label %9, label %10

9:                                                ; preds = %6, %1
  tail call void (ptr, i32, ptr, ...) @av_log(ptr noundef nonnull %0, i32 noundef 16, ptr noundef nonnull @.str.2) #9
  br label %49

10:                                               ; preds = %6
  %11 = getelementptr inbounds nuw i8, ptr %0, i64 112
  %12 = load i32, ptr %11, align 8, !tbaa !29
  %13 = and i32 %12, 15
  %.not31 = icmp eq i32 %13, 0
  br i1 %.not31, label %14, label %18

14:                                               ; preds = %10
  %15 = getelementptr inbounds nuw i8, ptr %0, i64 116
  %16 = load i32, ptr %15, align 4, !tbaa !30
  %17 = and i32 %16, 15
  %.not32 = icmp eq i32 %17, 0
  br i1 %.not32, label %19, label %18

18:                                               ; preds = %14, %10
  tail call void (ptr, i32, ptr, ...) @av_log(ptr noundef nonnull %0, i32 noundef 16, ptr noundef nonnull @.str.3) #9
  br label %49

19:                                               ; preds = %14
  %20 = tail call i32 @av_image_check_size(i32 noundef %12, i32 noundef %16, i32 noundef 0, ptr noundef nonnull %0) #9
  %21 = icmp slt i32 %20, 0
  br i1 %21, label %49, label %22

22:                                               ; preds = %19
  %23 = load i32, ptr %11, align 8, !tbaa !29
  %24 = load i32, ptr %15, align 4, !tbaa !30
  %25 = shl i32 %23, 1
  %26 = mul i32 %25, %24
  %27 = sext i32 %26 to i64
  %28 = tail call noalias ptr @av_mallocz(i64 noundef %27) #9
  %29 = getelementptr inbounds nuw i8, ptr %3, i64 56
  store ptr %28, ptr %29, align 8, !tbaa !31
  %30 = load i32, ptr %11, align 8, !tbaa !29
  %31 = load i32, ptr %15, align 4, !tbaa !30
  %32 = shl i32 %30, 1
  %33 = mul i32 %32, %31
  %34 = sext i32 %33 to i64
  %35 = tail call noalias ptr @av_mallocz(i64 noundef %34) #9
  %36 = getelementptr inbounds nuw i8, ptr %3, i64 64
  store ptr %35, ptr %36, align 16, !tbaa !40
  %37 = load ptr, ptr %29, align 8, !tbaa !31
  %.not33 = icmp eq ptr %37, null
  %.not34 = icmp eq ptr %35, null
  %or.cond = select i1 %.not33, i1 true, i1 %.not34
  br i1 %or.cond, label %49, label %38

38:                                               ; preds = %22
  %39 = load ptr, ptr %7, align 8, !tbaa !28
  %40 = load i32, ptr %39, align 1, !tbaa !41
  %41 = lshr i32 %40, 16
  %42 = getelementptr inbounds nuw i8, ptr %3, i64 2028
  store i32 %41, ptr %42, align 4, !tbaa !42
  %43 = getelementptr inbounds nuw i8, ptr %3, i64 8
  tail call void @ff_blockdsp_init(ptr noundef nonnull %43) #9
  %44 = getelementptr inbounds nuw i8, ptr %3, i64 40
  tail call void @ff_bswapdsp_init(ptr noundef nonnull %44) #9
  store ptr %0, ptr %3, align 16, !tbaa !43
  %45 = load i32, ptr %42, align 4, !tbaa !42
  %46 = icmp sgt i32 %45, 2
  %spec.select = select i1 %46, i32 37, i32 43
  %47 = getelementptr inbounds nuw i8, ptr %0, i64 136
  store i32 %spec.select, ptr %47, align 8, !tbaa !44
  %48 = tail call i32 @pthread_once(ptr noundef nonnull @decode_init.init_static_once, ptr noundef nonnull @init_vlcs) #9
  br label %49

49:                                               ; preds = %22, %19, %38, %18, %9
  %.0 = phi i32 [ -1094995529, %9 ], [ -1094995529, %18 ], [ 0, %38 ], [ %20, %19 ], [ -12, %22 ]
  ret i32 %.0
}